target datalayout = "e-m:e-p270:32:32-p271:32:32-p272:64:64-i64:64-i128:128-f80:128-n8:16:32:64-S128"
target triple = "x86_64-pc-linux-gnu"

; Function Attrs: nounwind uwtable
define internal i32 @change_deflt_libctx(ptr noundef %0) #0 {
  %2 = alloca i32, align 4
  %3 = alloca ptr, align 8
  %4 = alloca ptr, align 8
  %5 = alloca ptr, align 8
  %6 = alloca ptr, align 8
  %7 = alloca i32, align 4
  %8 = alloca i32, align 4
  store ptr %0, ptr %3, align 8, !tbaa !17
  call void @llvm.lifetime.start.p0(i64 8, ptr %4) #4
  %9 = call ptr @OSSL_LIB_CTX_new()
  store ptr %9, ptr %4, align 8, !tbaa !20
  call void @llvm.lifetime.start.p0(i64 8, ptr %5) #4
  call void @llvm.lifetime.start.p0(i64 8, ptr %6) #4
  call void @llvm.lifetime.start.p0(i64 4, ptr %7) #4
  store i32 0, ptr %7, align 4, !tbaa !4
  %10 = load ptr, ptr %4, align 8, !tbaa !20
  %11 = icmp eq ptr %10, null
  br i1 %11, label %12, label %13

12:                                               ; preds = %1
  store i32 0, ptr %2, align 4
  store i32 1, ptr %8, align 4
  br label %37

13:                                               ; preds = %1
  %14 = load ptr, ptr %4, align 8, !tbaa !20
  %15 = call ptr @OSSL_LIB_CTX_set0_default(ptr noundef %14)
  store ptr %15, ptr %5, align 8, !tbaa !20
  %16 = call i32 @ASYNC_pause_job()
  %17 = load ptr, ptr %5, align 8, !tbaa !20
  %18 = call ptr @OSSL_LIB_CTX_set0_default(ptr noundef %17)
  store ptr %18, ptr %6, align 8, !tbaa !20
  %19 = load ptr, ptr %6, align 8, !tbaa !20
  %20 = load ptr, ptr %4, align 8, !tbaa !20
  %21 = icmp ne ptr %19, %20
  br i1 %21, label %22, label %23

22:                                               ; preds = %13
  br label %34

23:                                               ; preds = %13
  %24 = load ptr, ptr %4, align 8, !tbaa !20
  %25 = call ptr @OSSL_LIB_CTX_set0_default(ptr noundef %24)
  store ptr %25, ptr %5, align 8, !tbaa !20
  %26 = call i32 @ASYNC_pause_job()
  %27 = load ptr, ptr %5, align 8, !tbaa !20
  %28 = call ptr @OSSL_LIB_CTX_set0_default(ptr noundef %27)
  store ptr %28, ptr %6, align 8, !tbaa !20
  %29 = load ptr, ptr %6, align 8, !tbaa !20
  %30 = load ptr, ptr %4, align 8, !tbaa !20
  %31 = icmp ne ptr %29, %30
  br i1 %31, label %32, label %33

32:                                               ; preds = %23
  br label %34

33:                                               ; preds = %23
  store i32 1, ptr %7, align 4, !tbaa !4
  br label %34

34:                                               ; preds = %33, %32, %22
  %35 = load ptr, ptr %4, align 8, !tbaa !20
  call void @OSSL_LIB_CTX_free(ptr noundef %35)
  %36 = load i32, ptr %7, align 4, !tbaa !4
  store i32 %36, ptr %2, align 4
  store i32 1, ptr %8, align 4
  br label %37

37:                                               ; preds = %34, %12
  call void @llvm.lifetime.end.p0(i64 4, ptr %7) #4
  call void @llvm.lifetime.end.p0(i64 8, ptr %6) #4
  call void @llvm.lifetime.end.p0(i64 8, ptr %5) #4
  call void @llvm.lifetime.end.p0(i64 8, ptr %4) #4
  %38 = load i32, ptr %2, align 4
  ret i32 %38
}