; Function Attrs: nounwind uwtable
define internal range(i32 0, 2) i32 @change_deflt_libctx(ptr readnone captures(none) %0) #0 {
  %2 = tail call ptr @OSSL_LIB_CTX_new() #5
  %3 = icmp eq ptr %2, null
  br i1 %3, label %13, label %4

4:                                                ; preds = %1
  %5 = tail call ptr @OSSL_LIB_CTX_set0_default(ptr noundef nonnull %2) #5
  %6 = tail call i32 @ASYNC_pause_job() #5
  %7 = tail call ptr @OSSL_LIB_CTX_set0_default(ptr noundef %5) #5
  %.not = icmp eq ptr %7, %2
  br i1 %.not, label %8, label %12

8:                                                ; preds = %4
  %9 = tail call ptr @OSSL_LIB_CTX_set0_default(ptr noundef nonnull %2) #5
  %10 = tail call i32 @ASYNC_pause_job() #5
  %11 = tail call ptr @OSSL_LIB_CTX_set0_default(ptr noundef %9) #5
  %.not13 = icmp eq ptr %11, %2
  %spec.select = zext i1 %.not13 to i32
  br label %12

12:                                               ; preds = %8, %4
  %.0 = phi i32 [ 0, %4 ], [ %spec.select, %8 ]
  tail call void @OSSL_LIB_CTX_free(ptr noundef nonnull %2) #5
  br label %13

13:                                               ; preds = %1, %12
  %.011 = phi i32 [ %.0, %12 ], [ 0, %1 ]
  ret i32 %.011
}